target datalayout = "e-m:e-p270:32:32-p271:32:32-p272:64:64-i64:64-i128:128-f80:128-n8:16:32:64-S128"
target triple = "x86_64-pc-linux-gnu"

%"struct.ODDLParser::Text" = type { i64, i64, ptr }
%"struct.ODDLParser::Name" = type { i32, ptr }

@_ZN10ODDLParser4TextC1EPKcm = hidden unnamed_addr alias void (ptr, ptr, i64), ptr @_ZN10ODDLParser4TextC2EPKcm

; Function Attrs: mustprogress uwtable
define hidden void @_ZN10ODDLParser4NameC2ERKS0_(ptr noundef nonnull align 8 dereferenceable(16) %0, ptr noundef nonnull align 8 dereferenceable(16) %1) unnamed_addr #0 align 2 personality ptr @__gxx_personality_v0 {
  %3 = alloca ptr, align 8
  %4 = alloca ptr, align 8
  %5 = alloca ptr, align 8
  %6 = alloca i32, align 4
  store ptr %0, ptr %3, align 8
  store ptr %1, ptr %4, align 8
  %7 = load ptr, ptr %3, align 8
  %8 = load ptr, ptr %4, align 8
  %9 = getelementptr inbounds nuw %"struct.ODDLParser::Name", ptr %8, i32 0, i32 0
  %10 = load i32, ptr %9, align 8
  %11 = getelementptr inbounds nuw %"struct.ODDLParser::Name", ptr %7, i32 0, i32 0
  store i32 %10, ptr %11, align 8
  %12 = call noalias noundef nonnull ptr @_Znwm(i64 noundef 24) #9
  %13 = load ptr, ptr %4, align 8
  %14 = getelementptr inbounds nuw %"struct.ODDLParser::Name", ptr %13, i32 0, i32 1
  %15 = load ptr, ptr %14, align 8
  %16 = getelementptr inbounds nuw %"struct.ODDLParser::Text", ptr %15, i32 0, i32 2
  %17 = load ptr, ptr %16, align 8
  %18 = load ptr, ptr %4, align 8
  %19 = getelementptr inbounds nuw %"struct.ODDLParser::Name", ptr %18, i32 0, i32 1
  %20 = load ptr, ptr %19, align 8
  %21 = getelementptr inbounds nuw %"struct.ODDLParser::Text", ptr %20, i32 0, i32 1
  %22 = load i64, ptr %21, align 8
  invoke void @_ZN10ODDLParser4TextC1EPKcm(ptr noundef nonnull align 8 dereferenceable(24) %12, ptr noundef %17, i64 noundef %22)
          to label %23 unwind label %25

23:                                               ; preds = %2
  %24 = getelementptr inbounds nuw %"struct.ODDLParser::Name", ptr %7, i32 0, i32 1
  store ptr %12, ptr %24, align 8
  ret void

25:                                               ; preds = %2
  %26 = landingpad { ptr, i32 }
          cleanup
  %27 = extractvalue { ptr, i32 } %26, 0
  store ptr %27, ptr %5, align 8
  %28 = extractvalue { ptr, i32 } %26, 1
  store i32 %28, ptr %6, align 4
  call void @_ZdlPvm(ptr noundef %12, i64 noundef 24) #12
  br label %29

29:                                               ; preds = %25
  %30 = load ptr, ptr %5, align 8
  %31 = load i32, ptr %6, align 4
  %32 = insertvalue { ptr, i32 } poison, ptr %30, 0
  %33 = insertvalue { ptr, i32 } %32, i32 %31, 1
  resume { ptr, i32 } %33
}