; Function Attrs: mustprogress uwtable
define hidden void @_ZN10ODDLParser4NameC2ERKS0_(ptr noundef nonnull writeonly align 8 captures(none) dereferenceable(16) initializes((0, 4)) %0, ptr noundef nonnull readonly align 8 captures(none) dereferenceable(16) %1) unnamed_addr #0 align 2 personality ptr @__gxx_personality_v0 {
  %3 = load i32, ptr %1, align 8
  store i32 %3, ptr %0, align 8
  %4 = tail call noalias noundef nonnull dereferenceable(24) ptr @_Znwm(i64 noundef 24) #11
  %5 = getelementptr inbounds nuw i8, ptr %1, i64 8
  %6 = load ptr, ptr %5, align 8
  %7 = getelementptr inbounds nuw i8, ptr %6, i64 16
  %8 = load ptr, ptr %7, align 8
  %9 = getelementptr inbounds nuw i8, ptr %6, i64 8
  %10 = load i64, ptr %9, align 8
  %.not.i.i = icmp eq i64 %10, 0
  tail call void @llvm.memset.p0.i64(ptr noundef nonnull align 8 dereferenceable(24) %4, i8 0, i64 24, i1 false)
  br i1 %.not.i.i, label %_ZN10ODDLParser4TextC2EPKcm.exit, label %11

11:                                               ; preds = %2
  %12 = getelementptr inbounds nuw i8, ptr %4, i64 8
  store i64 %10, ptr %12, align 8
  %13 = add i64 %10, 1
  store i64 %13, ptr %4, align 8
  %14 = invoke noalias noundef nonnull ptr @_Znam(i64 noundef %13) #11
          to label %.noexc unwind label %19

.noexc:                                           ; preds = %11
  %15 = getelementptr inbounds nuw i8, ptr %4, i64 16
  store ptr %14, ptr %15, align 8
  %16 = tail call ptr @strncpy(ptr noundef nonnull %14, ptr noundef readonly %8, i64 noundef %10) #12
  %17 = getelementptr inbounds nuw i8, ptr %14, i64 %10
  store i8 0, ptr %17, align 1
  br label %_ZN10ODDLParser4TextC2EPKcm.exit

_ZN10ODDLParser4TextC2EPKcm.exit:                 ; preds = %.noexc, %2
  %18 = getelementptr inbounds nuw i8, ptr %0, i64 8
  store ptr %4, ptr %18, align 8
  ret void

19:                                               ; preds = %11
  %20 = landingpad { ptr, i32 }
          cleanup
  tail call void @_ZdlPvm(ptr noundef nonnull %4, i64 noundef 24) #13
  resume { ptr, i32 } %20
}